
Allocating common symbols
Common symbol       size              file

AA_state            0x4               obj/AlarmActuatorDriver.o
AM_state_id         0x1               obj/AlarmMonitor.o
AM_state            0x4               obj/AlarmMonitor.o
AA_state_id         0x1               obj/AlarmActuatorDriver.o
MA_state            0x4               obj/MainAlgo.o
PS_state            0x4               obj/PressureSensor.o
MA_state_id         0x1               obj/AlarmMonitor.o
PS_state_id         0x1               obj/main.o

Memory Configuration

Name             Origin             Length             Attributes
FLASH            0x0000000008000000 0x0000000000020000 xr
SRAM             0x0000000020000000 0x0000000000005000 xrw
*default*        0x0000000000000000 0xffffffffffffffff

Linker script and memory map


.text           0x0000000008000000      0x3c4
 *(.vectors*)
 .vectors       0x0000000008000000       0x1c obj/startup.o
                0x0000000008000000                g_p_fn_Vectors
 *(.text*)
 .text          0x000000000800001c       0x9c obj/AlarmActuatorDriver.o
                0x000000000800001c                stopAlarm
                0x0000000008000038                startAlarm
                0x0000000008000054                AA_init
                0x0000000008000062                ST_AA_waiting
                0x0000000008000078                ST_AA_alarmOFF
                0x0000000008000098                ST_AA_alarmON
 .text          0x00000000080000b8       0x88 obj/AlarmMonitor.o
                0x00000000080000b8                high_pressure_detected
                0x00000000080000d4                ST_AM_alarmOFF
                0x00000000080000ec                ST_AM_alarmON
                0x0000000008000110                ST_AM_waiting
 .text          0x0000000008000140       0xc4 obj/driver.o
                0x0000000008000140                Delay
                0x0000000008000160                getPressureVal
                0x0000000008000178                Set_Alarm_actuator
                0x00000000080001b4                GPIO_INITIALIZATION
 .text          0x0000000008000204       0x74 obj/main.o
                0x0000000008000204                setup
                0x0000000008000244                main
 .text          0x0000000008000278       0x34 obj/MainAlgo.o
                0x0000000008000278                ST_MA_highPD
 .text          0x00000000080002ac       0x88 obj/PressureSensor.o
                0x00000000080002ac                PS_init
                0x00000000080002c8                ST_PS_reading
                0x00000000080002f8                ST_PS_waiting
                0x0000000008000320                SetPressureVal
 .text          0x0000000008000334       0x90 obj/startup.o
                0x0000000008000334                Bus_Fault_Handler
                0x0000000008000334                H_Fault_Handler
                0x0000000008000334                MM_Fault_Handler
                0x0000000008000334                Usage_Fault_Handler
                0x0000000008000334                Default_Handler
                0x0000000008000334                NMI_Handler
                0x0000000008000340                Reset_Handler
 *(.rodata)
                0x00000000080003c4                _E_text = .

.glue_7         0x00000000080003c4        0x0
 .glue_7        0x00000000080003c4        0x0 linker stubs

.glue_7t        0x00000000080003c4        0x0
 .glue_7t       0x00000000080003c4        0x0 linker stubs

.vfp11_veneer   0x00000000080003c4        0x0
 .vfp11_veneer  0x00000000080003c4        0x0 linker stubs

.v4_bx          0x00000000080003c4        0x0
 .v4_bx         0x00000000080003c4        0x0 linker stubs

.iplt           0x00000000080003c4        0x0
 .iplt          0x00000000080003c4        0x0 obj/AlarmActuatorDriver.o

.rel.dyn        0x00000000080003c4        0x0
 .rel.iplt      0x00000000080003c4        0x0 obj/AlarmActuatorDriver.o

.data           0x0000000020000000        0x8 load address 0x00000000080003c4
                0x0000000020000000                _S_DATA = .
 *(.data)
 .data          0x0000000020000000        0x0 obj/AlarmActuatorDriver.o
 .data          0x0000000020000000        0x4 obj/AlarmMonitor.o
                0x0000000020000000                period_alarm
 .data          0x0000000020000004        0x0 obj/driver.o
 .data          0x0000000020000004        0x0 obj/main.o
 .data          0x0000000020000004        0x4 obj/MainAlgo.o
 .data          0x0000000020000008        0x0 obj/PressureSensor.o
 .data          0x0000000020000008        0x0 obj/startup.o
                0x0000000020000008                . = ALIGN (0x4)
                0x0000000020000008                _E_DATA = .

.igot.plt       0x0000000020000008        0x0 load address 0x00000000080003cc
 .igot.plt      0x0000000020000008        0x0 obj/AlarmActuatorDriver.o

.bss            0x0000000020000008      0x428 load address 0x00000000080003cc
                0x0000000020000008                _S_bss = .
 *(.bss*)
 .bss           0x0000000020000008        0x4 obj/AlarmActuatorDriver.o
                0x0000000020000008                AA_speed
 .bss           0x000000002000000c        0x0 obj/AlarmMonitor.o
 .bss           0x000000002000000c        0x0 obj/driver.o
 .bss           0x000000002000000c        0x0 obj/main.o
 .bss           0x000000002000000c        0x4 obj/MainAlgo.o
 .bss           0x0000000020000010        0x4 obj/PressureSensor.o
 .bss           0x0000000020000014      0x400 obj/startup.o
                0x0000000020000414                _E_bss = .
 COMMON         0x0000000020000414        0x5 obj/AlarmActuatorDriver.o
                0x0000000020000414                AA_state
                0x0000000020000418                AA_state_id
 *fill*         0x0000000020000419        0x3 
 COMMON         0x000000002000041c        0x9 obj/AlarmMonitor.o
                0x000000002000041c                AM_state_id
                0x0000000020000420                AM_state
                0x0000000020000424                MA_state_id
 COMMON         0x0000000020000425        0x1 obj/main.o
                0x0000000020000425                PS_state_id
 *fill*         0x0000000020000426        0x2 
 COMMON         0x0000000020000428        0x4 obj/MainAlgo.o
                0x0000000020000428                MA_state
 COMMON         0x000000002000042c        0x4 obj/PressureSensor.o
                0x000000002000042c                PS_state
LOAD obj/AlarmActuatorDriver.o
LOAD obj/AlarmMonitor.o
LOAD obj/driver.o
LOAD obj/main.o
LOAD obj/MainAlgo.o
LOAD obj/PressureSensor.o
LOAD obj/startup.o
OUTPUT(bin//Project_name.elf elf32-littlearm)

.debug_info     0x0000000000000000     0x3fa4
 .debug_info    0x0000000000000000      0xa6d obj/AlarmActuatorDriver.o
 .debug_info    0x0000000000000a6d      0xa74 obj/AlarmMonitor.o
 .debug_info    0x00000000000014e1      0xa05 obj/driver.o
 .debug_info    0x0000000000001ee6      0xaa8 obj/main.o
 .debug_info    0x000000000000298e      0xa06 obj/MainAlgo.o
 .debug_info    0x0000000000003394      0xa3f obj/PressureSensor.o
 .debug_info    0x0000000000003dd3      0x1d1 obj/startup.o

.debug_abbrev   0x0000000000000000      0xc5d
 .debug_abbrev  0x0000000000000000      0x1f9 obj/AlarmActuatorDriver.o
 .debug_abbrev  0x00000000000001f9      0x1e1 obj/AlarmMonitor.o
 .debug_abbrev  0x00000000000003da      0x1de obj/driver.o
 .debug_abbrev  0x00000000000005b8      0x1d8 obj/main.o
 .debug_abbrev  0x0000000000000790      0x1da obj/MainAlgo.o
 .debug_abbrev  0x000000000000096a      0x20a obj/PressureSensor.o
 .debug_abbrev  0x0000000000000b74       0xe9 obj/startup.o

.debug_loc      0x0000000000000000      0x538
 .debug_loc     0x0000000000000000      0x150 obj/AlarmActuatorDriver.o
 .debug_loc     0x0000000000000150       0xc8 obj/AlarmMonitor.o
 .debug_loc     0x0000000000000218      0x140 obj/driver.o
 .debug_loc     0x0000000000000358       0x58 obj/main.o
 .debug_loc     0x00000000000003b0       0x2c obj/MainAlgo.o
 .debug_loc     0x00000000000003dc       0xe0 obj/PressureSensor.o
 .debug_loc     0x00000000000004bc       0x7c obj/startup.o

.debug_aranges  0x0000000000000000       0xe0
 .debug_aranges
                0x0000000000000000       0x20 obj/AlarmActuatorDriver.o
 .debug_aranges
                0x0000000000000020       0x20 obj/AlarmMonitor.o
 .debug_aranges
                0x0000000000000040       0x20 obj/driver.o
 .debug_aranges
                0x0000000000000060       0x20 obj/main.o
 .debug_aranges
                0x0000000000000080       0x20 obj/MainAlgo.o
 .debug_aranges
                0x00000000000000a0       0x20 obj/PressureSensor.o
 .debug_aranges
                0x00000000000000c0       0x20 obj/startup.o

.debug_line     0x0000000000000000     0x12f0
 .debug_line    0x0000000000000000      0x2d7 obj/AlarmActuatorDriver.o
 .debug_line    0x00000000000002d7      0x2d2 obj/AlarmMonitor.o
 .debug_line    0x00000000000005a9      0x2ce obj/driver.o
 .debug_line    0x0000000000000877      0x309 obj/main.o
 .debug_line    0x0000000000000b80      0x2b1 obj/MainAlgo.o
 .debug_line    0x0000000000000e31      0x2c7 obj/PressureSensor.o
 .debug_line    0x00000000000010f8      0x1f8 obj/startup.o

.debug_str      0x0000000000000000      0x7c8
 .debug_str     0x0000000000000000      0x5a1 obj/AlarmActuatorDriver.o
                                        0x61b (size before relaxing)
 .debug_str     0x00000000000005a1       0x8c obj/AlarmMonitor.o
                                        0x631 (size before relaxing)
 .debug_str     0x000000000000062d       0x5b obj/driver.o
                                        0x5d3 (size before relaxing)
 .debug_str     0x0000000000000688       0x2b obj/main.o
                                        0x647 (size before relaxing)
 .debug_str     0x00000000000006b3       0x31 obj/MainAlgo.o
                                        0x5c9 (size before relaxing)
 .debug_str     0x00000000000006e4       0x50 obj/PressureSensor.o
                                        0x5f4 (size before relaxing)
 .debug_str     0x0000000000000734       0x94 obj/startup.o
                                        0x232 (size before relaxing)

.comment        0x0000000000000000       0x7b
 .comment       0x0000000000000000       0x7b obj/AlarmActuatorDriver.o
                                         0x7c (size before relaxing)
 .comment       0x000000000000007b       0x7c obj/AlarmMonitor.o
 .comment       0x000000000000007b       0x7c obj/driver.o
 .comment       0x000000000000007b       0x7c obj/main.o
 .comment       0x000000000000007b       0x7c obj/MainAlgo.o
 .comment       0x000000000000007b       0x7c obj/PressureSensor.o
 .comment       0x000000000000007b       0x7c obj/startup.o

.ARM.attributes
                0x0000000000000000       0x33
 .ARM.attributes
                0x0000000000000000       0x33 obj/AlarmActuatorDriver.o
 .ARM.attributes
                0x0000000000000033       0x33 obj/AlarmMonitor.o
 .ARM.attributes
                0x0000000000000066       0x33 obj/driver.o
 .ARM.attributes
                0x0000000000000099       0x33 obj/main.o
 .ARM.attributes
                0x00000000000000cc       0x33 obj/MainAlgo.o
 .ARM.attributes
                0x00000000000000ff       0x33 obj/PressureSensor.o
 .ARM.attributes
                0x0000000000000132       0x33 obj/startup.o

.debug_frame    0x0000000000000000      0x334
 .debug_frame   0x0000000000000000       0xc4 obj/AlarmActuatorDriver.o
 .debug_frame   0x00000000000000c4       0x84 obj/AlarmMonitor.o
 .debug_frame   0x0000000000000148       0xa0 obj/driver.o
 .debug_frame   0x00000000000001e8       0x48 obj/main.o
 .debug_frame   0x0000000000000230       0x2c obj/MainAlgo.o
 .debug_frame   0x000000000000025c       0x88 obj/PressureSensor.o
 .debug_frame   0x00000000000002e4       0x50 obj/startup.o
